target datalayout = "e-m:e-p270:32:32-p271:32:32-p272:64:64-i64:64-i128:128-f80:128-n8:16:32:64-S128"
target triple = "x86_64-pc-linux-gnu"

%struct._zval_struct = type { %union._zend_value, %union.anon, %union.anon.2 }
%union._zend_value = type { i64 }
%union.anon = type { i32 }
%union.anon.2 = type { i32 }
%struct._zend_refcounted_h = type { i32, %union.anon.3 }
%union.anon.3 = type { i32 }
%struct._spl_heap_object = type { ptr, i32, ptr, ptr, %struct._zend_object }
%struct._zend_object = type { %struct._zend_refcounted_h, i32, ptr, ptr, ptr, [1 x %struct._zval_struct] }
%struct._spl_ptr_heap = type { ptr, ptr, ptr, ptr, i32, i32, i64, i64 }

; Function Attrs: nounwind uwtable
define internal void @spl_ptr_heap_destroy(ptr noundef %0) #0 {
  %2 = alloca ptr, align 8
  %3 = alloca i64, align 8
  %4 = alloca ptr, align 8
  %5 = alloca i32, align 4
  store ptr %0, ptr %4, align 8
  %6 = load ptr, ptr %4, align 8
  %7 = icmp ne ptr %6, null
  br i1 %7, label %9, label %8

8:                                                ; preds = %1
  br label %39

9:                                                ; preds = %1
  store i32 0, ptr %5, align 4
  br label %10

10:                                               ; preds = %31, %9
  %11 = load i32, ptr %5, align 4
  %12 = load ptr, ptr %4, align 8
  %13 = getelementptr inbounds %struct._spl_ptr_heap, ptr %12, i32 0, i32 4
  %14 = load i32, ptr %13, align 8
  %15 = icmp slt i32 %11, %14
  br i1 %15, label %16, label %34

16:                                               ; preds = %10
  %17 = load ptr, ptr %4, align 8
  %18 = getelementptr inbounds %struct._spl_ptr_heap, ptr %17, i32 0, i32 2
  %19 = load ptr, ptr %18, align 8
  %20 = load ptr, ptr %4, align 8
  %21 = load i32, ptr %5, align 4
  %22 = sext i32 %21 to i64
  store ptr %20, ptr %2, align 8
  store i64 %22, ptr %3, align 8
  %23 = load ptr, ptr %2, align 8
  %24 = load ptr, ptr %23, align 8
  %25 = load ptr, ptr %2, align 8
  %26 = getelementptr inbounds %struct._spl_ptr_heap, ptr %25, i32 0, i32 7
  %27 = load i64, ptr %26, align 8
  %28 = load i64, ptr %3, align 8
  %29 = mul i64 %27, %28
  %30 = getelementptr inbounds i8, ptr %24, i64 %29
  call void %19(ptr noundef %30)
  br label %31

31:                                               ; preds = %16
  %32 = load i32, ptr %5, align 4
  %33 = add nsw i32 %32, 1
  store i32 %33, ptr %5, align 4
  br label %10

34:                                               ; preds = %10
  %35 = load ptr, ptr %4, align 8
  %36 = getelementptr inbounds %struct._spl_ptr_heap, ptr %35, i32 0, i32 0
  %37 = load ptr, ptr %36, align 8
  call void @_efree(ptr noundef %37)
  %38 = load ptr, ptr %4, align 8
  call void @_efree(ptr noundef %38)
  br label %39

39:                                               ; preds = %34, %8
  ret void
}

; Function Attrs: nounwind uwtable
define internal ptr @spl_heap_from_obj(ptr noundef %0) #0 {
  %2 = alloca ptr, align 8
  store ptr %0, ptr %2, align 8
  %3 = load ptr, ptr %2, align 8
  %4 = getelementptr inbounds i8, ptr %3, i64 -32
  ret ptr %4
}

; Function Attrs: nounwind uwtable
define internal void @spl_heap_object_free_storage(ptr noundef %0) #0 {
  %2 = alloca ptr, align 8
  %3 = alloca ptr, align 8
  store ptr %0, ptr %2, align 8
  %4 = load ptr, ptr %2, align 8
  %5 = call ptr @spl_heap_from_obj(ptr noundef %4)
  store ptr %5, ptr %3, align 8
  %6 = load ptr, ptr %3, align 8
  %7 = getelementptr inbounds %struct._spl_heap_object, ptr %6, i32 0, i32 4
  call void @zend_object_std_dtor(ptr noundef %7)
  %8 = load ptr, ptr %3, align 8
  %9 = getelementptr inbounds %struct._spl_heap_object, ptr %8, i32 0, i32 0
  %10 = load ptr, ptr %9, align 8
  call void @spl_ptr_heap_destroy(ptr noundef %10)
  ret void
}