; Function Attrs: nounwind uwtable
define internal void @spl_heap_object_free_storage(ptr noundef %0) #0 {
  %2 = getelementptr inbounds i8, ptr %0, i64 -32
  tail call void @zend_object_std_dtor(ptr noundef nonnull %0) #14
  %3 = load ptr, ptr %2, align 8
  %.not.i = icmp eq ptr %3, null
  br i1 %.not.i, label %spl_ptr_heap_destroy.exit, label %.preheader.i

.preheader.i:                                     ; preds = %1
  %4 = getelementptr inbounds i8, ptr %3, i64 32
  %5 = load i32, ptr %4, align 8
  %6 = icmp sgt i32 %5, 0
  br i1 %6, label %.lr.ph.i, label %._crit_edge.i

.lr.ph.i:                                         ; preds = %.preheader.i
  %7 = getelementptr inbounds i8, ptr %3, i64 16
  %8 = getelementptr inbounds i8, ptr %3, i64 48
  br label %9

9:                                                ; preds = %9, %.lr.ph.i
  %indvars.iv.i = phi i64 [ 0, %.lr.ph.i ], [ %indvars.iv.next.i, %9 ]
  %10 = load ptr, ptr %7, align 8
  %11 = load ptr, ptr %3, align 8
  %12 = load i64, ptr %8, align 8
  %13 = mul i64 %12, %indvars.iv.i
  %14 = getelementptr inbounds i8, ptr %11, i64 %13
  tail call void %10(ptr noundef %14) #14
  %indvars.iv.next.i = add nuw nsw i64 %indvars.iv.i, 1
  %15 = load i32, ptr %4, align 8
  %16 = sext i32 %15 to i64
  %17 = icmp slt i64 %indvars.iv.next.i, %16
  br i1 %17, label %9, label %._crit_edge.i

._crit_edge.i:                                    ; preds = %9, %.preheader.i
  %18 = load ptr, ptr %3, align 8
  tail call void @_efree(ptr noundef %18) #14
  tail call void @_efree(ptr noundef nonnull %3) #14
  br label %spl_ptr_heap_destroy.exit

spl_ptr_heap_destroy.exit:                        ; preds = %1, %._crit_edge.i
  ret void
}